target datalayout = "e-m:e-p270:32:32-p271:32:32-p272:64:64-i64:64-i128:128-f80:128-n8:16:32:64-S128"
target triple = "x86_64-pc-linux-gnu"

%struct._object = type { i64, ptr }
%"class.nanobind::object" = type { %"class.nanobind::handle" }
%"class.nanobind::handle" = type { ptr }
%struct.Wrapper = type { %"class.nanobind::object" }
%"struct.nanobind::detail::type_caster.87" = type { %"struct.nanobind::detail::type_caster_base.88" }
%"struct.nanobind::detail::type_caster_base.88" = type { ptr }
%class.anon.91 = type { i8 }
%"struct.nanobind::detail::tuple.93" = type { %"struct.nanobind::detail::type_caster.87" }

@_ZTIZL29nanobind_init_test_typing_extRN8nanobind7module_EE7Wrapper = internal constant { ptr, ptr } { ptr getelementptr inbounds (ptr, ptr @_ZTVN10__cxxabiv117__class_type_infoE, i64 2), ptr @_ZTSZL29nanobind_init_test_typing_extRN8nanobind7module_EE7Wrapper }, align 8

; Function Attrs: inlinehint mustprogress nounwind optsize uwtable
define internal void @_ZL10_Py_INCREFP7_object(ptr noundef %0) #11 {
  %2 = alloca ptr, align 8
  store ptr %0, ptr %2, align 8, !tbaa !3
  %3 = load ptr, ptr %2, align 8, !tbaa !3
  %4 = getelementptr inbounds nuw %struct._object, ptr %3, i32 0, i32 0
  %5 = load i64, ptr %4, align 8, !tbaa !26
  %6 = add nsw i64 %5, 1
  store i64 %6, ptr %4, align 8, !tbaa !26
  ret void
}

; Function Attrs: inlinehint mustprogress nounwind optsize uwtable
define internal void @_ZL11_Py_XINCREFP7_object(ptr noundef %0) #11 {
  %2 = alloca ptr, align 8
  store ptr %0, ptr %2, align 8, !tbaa !3
  %3 = load ptr, ptr %2, align 8, !tbaa !3
  %4 = icmp ne ptr %3, null
  br i1 %4, label %5, label %7

5:                                                ; preds = %1
  %6 = load ptr, ptr %2, align 8, !tbaa !3
  call void @_ZL10_Py_INCREFP7_object(ptr noundef %6) #13
  br label %7

7:                                                ; preds = %5, %1
  ret void
}

; Function Attrs: mustprogress nounwind optsize uwtable
define linkonce_odr hidden noundef nonnull align 8 dereferenceable(8) ptr @_ZNKR8nanobind6handle7inc_refEv(ptr noundef nonnull align 8 dereferenceable(8) %0) #8 comdat align 2 personality ptr @__gxx_personality_v0 {
  %2 = alloca ptr, align 8
  store ptr %0, ptr %2, align 8, !tbaa !12
  %3 = load ptr, ptr %2, align 8
  %4 = getelementptr inbounds nuw %"class.nanobind::handle", ptr %3, i32 0, i32 0
  %5 = load ptr, ptr %4, align 8, !tbaa !14
  invoke void @_ZL11_Py_XINCREFP7_object(ptr noundef %5) #13
          to label %6 unwind label %7

6:                                                ; preds = %1
  ret ptr %3

7:                                                ; preds = %1
  %8 = landingpad { ptr, i32 }
          catch ptr null
  %9 = extractvalue { ptr, i32 } %8, 0
  call void @__clang_call_terminate(ptr %9) #16
  unreachable
}

; Function Attrs: noinline noreturn nounwind optsize uwtable
define linkonce_odr hidden void @__clang_call_terminate(ptr noundef %0) #7 comdat {
  %2 = call ptr @__cxa_begin_catch(ptr %0) #14
  call void @_ZSt9terminatev() #16
  unreachable
}

; Function Attrs: mustprogress optsize uwtable
define linkonce_odr hidden ptr @_ZN8nanobind6object7releaseEv(ptr noundef nonnull align 8 dereferenceable(8) %0) #0 comdat align 2 {
  %2 = alloca %"class.nanobind::handle", align 8
  %3 = alloca ptr, align 8
  store ptr %0, ptr %3, align 8, !tbaa !24
  %4 = load ptr, ptr %3, align 8
  %5 = getelementptr inbounds nuw %"class.nanobind::handle", ptr %4, i32 0, i32 0
  %6 = load ptr, ptr %5, align 8, !tbaa !14
  call void @_ZN8nanobind6handleC2EPK7_object(ptr noundef nonnull align 8 dereferenceable(8) %2, ptr noundef %6) #13
  %7 = getelementptr inbounds nuw %"class.nanobind::handle", ptr %4, i32 0, i32 0
  store ptr null, ptr %7, align 8, !tbaa !14
  %8 = getelementptr inbounds nuw %"class.nanobind::handle", ptr %2, i32 0, i32 0
  %9 = load ptr, ptr %8, align 8
  ret ptr %9
}

; Function Attrs: mustprogress nounwind optsize uwtable
define linkonce_odr hidden void @_ZN8nanobind6objectC2ERKS0_(ptr noundef nonnull align 8 dereferenceable(8) %0, ptr noundef nonnull align 8 dereferenceable(8) %1) unnamed_addr #8 comdat align 2 {
  %3 = alloca ptr, align 8
  %4 = alloca ptr, align 8
  store ptr %0, ptr %3, align 8, !tbaa !24
  store ptr %1, ptr %4, align 8, !tbaa !24
  %5 = load ptr, ptr %3, align 8
  %6 = load ptr, ptr %4, align 8, !tbaa !24
  call void @llvm.memcpy.p0.p0.i64(ptr align 8 %5, ptr align 8 %6, i64 8, i1 false)
  %7 = call noundef nonnull align 8 dereferenceable(8) ptr @_ZNKR8nanobind6handle7inc_refEv(ptr noundef nonnull align 8 dereferenceable(8) %5) #15
  ret void
}

; Function Attrs: mustprogress nounwind optsize uwtable
define linkonce_odr hidden void @_ZN8nanobind6objectD2Ev(ptr noundef nonnull align 8 dereferenceable(8) %0) unnamed_addr #8 comdat align 2 {
  %2 = alloca ptr, align 8
  store ptr %0, ptr %2, align 8, !tbaa !24
  %3 = load ptr, ptr %2, align 8
  %4 = call noundef nonnull align 8 dereferenceable(8) ptr @_ZNKR8nanobind6handle7dec_refEv(ptr noundef nonnull align 8 dereferenceable(8) %3) #15
  ret void
}

; Function Attrs: alwaysinline mustprogress nounwind optsize uwtable
define linkonce_odr hidden noundef ptr @_ZNK8nanobind6handle3ptrEv(ptr noundef nonnull align 8 dereferenceable(8) %0) #5 comdat align 2 {
  %2 = alloca ptr, align 8
  store ptr %0, ptr %2, align 8, !tbaa !12
  %3 = load ptr, ptr %2, align 8
  %4 = getelementptr inbounds nuw %"class.nanobind::handle", ptr %3, i32 0, i32 0
  %5 = load ptr, ptr %4, align 8, !tbaa !14
  ret ptr %5
}

; Function Attrs: mustprogress nounwind optsize uwtable
define linkonce_odr hidden ptr @_ZN8nanobind6detail11type_casterINS_6objectEiE8from_cppEOS2_NS_9rv_policyEPNS0_12cleanup_listE(ptr noundef nonnull align 8 dereferenceable(8) %0, i32 noundef %1, ptr noundef %2) #8 comdat align 2 personality ptr @__gxx_personality_v0 {
  %4 = alloca %"class.nanobind::handle", align 8
  %5 = alloca ptr, align 8
  %6 = alloca i32, align 4
  %7 = alloca ptr, align 8
  store ptr %0, ptr %5, align 8, !tbaa !24
  store i32 %1, ptr %6, align 4, !tbaa !163
  store ptr %2, ptr %7, align 8, !tbaa !165
  %8 = load ptr, ptr %5, align 8, !tbaa !24
  %9 = invoke ptr @_ZN8nanobind6object7releaseEv(ptr noundef nonnull align 8 dereferenceable(8) %8) #13
          to label %10 unwind label %14

10:                                               ; preds = %3
  %11 = getelementptr inbounds nuw %"class.nanobind::handle", ptr %4, i32 0, i32 0
  store ptr %9, ptr %11, align 8
  %12 = getelementptr inbounds nuw %"class.nanobind::handle", ptr %4, i32 0, i32 0
  %13 = load ptr, ptr %12, align 8
  ret ptr %13

14:                                               ; preds = %3
  %15 = landingpad { ptr, i32 }
          catch ptr null
  %16 = extractvalue { ptr, i32 } %15, 0
  call void @__clang_call_terminate(ptr %16) #16
  unreachable
}

; Function Attrs: inlinehint mustprogress optsize uwtable
define internal void @"_ZZL29nanobind_init_test_typing_extRN8nanobind7module_EENK3$_5clERZL29nanobind_init_test_typing_extS1_E7Wrapper"(ptr dead_on_unwind noalias writable sret(%"class.nanobind::object") align 8 %0, ptr noundef nonnull align 1 dereferenceable(1) %1, ptr noundef nonnull align 8 dereferenceable(8) %2) #9 align 2 {
  %4 = alloca ptr, align 8
  %5 = alloca ptr, align 8
  %6 = alloca ptr, align 8
  store ptr %0, ptr %4, align 8
  store ptr %1, ptr %5, align 8, !tbaa !30
  store ptr %2, ptr %6, align 8, !tbaa !268
  %7 = load ptr, ptr %6, align 8, !tbaa !268
  %8 = getelementptr inbounds nuw %struct.Wrapper, ptr %7, i32 0, i32 0
  call void @_ZN8nanobind6objectC2ERKS0_(ptr noundef nonnull align 8 dereferenceable(8) %0, ptr noundef nonnull align 8 dereferenceable(8) %8) #13
  ret void
}

; Function Attrs: mustprogress optsize uwtable
define internal noundef nonnull align 8 dereferenceable(8) ptr @_ZN8nanobind6detail16type_caster_baseIZL29nanobind_init_test_typing_extRNS_7module_EE7WrapperEcvRS4_Ev(ptr noundef nonnull align 8 dereferenceable(8) %0) #0 align 2 {
  %2 = alloca ptr, align 8
  store ptr %0, ptr %2, align 8, !tbaa !286
  %3 = load ptr, ptr %2, align 8
  %4 = getelementptr inbounds nuw %"struct.nanobind::detail::type_caster_base.88", ptr %3, i32 0, i32 0
  %5 = load ptr, ptr %4, align 8, !tbaa !288
  call void @_ZN8nanobind6detail27raise_next_overload_if_nullEPv(ptr noundef %5) #13
  %6 = getelementptr inbounds nuw %"struct.nanobind::detail::type_caster_base.88", ptr %3, i32 0, i32 0
  %7 = load ptr, ptr %6, align 8, !tbaa !288
  ret ptr %7
}

; Function Attrs: alwaysinline mustprogress nounwind optsize uwtable
define internal noundef zeroext i1 @_ZN8nanobind6detail16type_caster_baseIZL29nanobind_init_test_typing_extRNS_7module_EE7WrapperE11from_pythonENS_6handleEhPNS0_12cleanup_listE(ptr noundef nonnull align 8 dereferenceable(8) %0, ptr %1, i8 noundef zeroext %2, ptr noundef %3) #5 align 2 {
  %5 = alloca %"class.nanobind::handle", align 8
  %6 = alloca ptr, align 8
  %7 = alloca i8, align 1
  %8 = alloca ptr, align 8
  %9 = getelementptr inbounds nuw %"class.nanobind::handle", ptr %5, i32 0, i32 0
  store ptr %1, ptr %9, align 8
  store ptr %0, ptr %6, align 8, !tbaa !286
  store i8 %2, ptr %7, align 1, !tbaa !76
  store ptr %3, ptr %8, align 8, !tbaa !165
  %10 = load ptr, ptr %6, align 8
  %11 = call noundef ptr @_ZNK8nanobind6handle3ptrEv(ptr noundef nonnull align 8 dereferenceable(8) %5) #13
  %12 = load i8, ptr %7, align 1, !tbaa !76
  %13 = load ptr, ptr %8, align 8, !tbaa !165
  %14 = getelementptr inbounds nuw %"struct.nanobind::detail::type_caster_base.88", ptr %10, i32 0, i32 0
  %15 = call noundef zeroext i1 @_ZN8nanobind6detail11nb_type_getEPKSt9type_infoP7_objecthPNS0_12cleanup_listEPPv(ptr noundef @_ZTIZL29nanobind_init_test_typing_extRN8nanobind7module_EE7Wrapper, ptr noundef %11, i8 noundef zeroext %12, ptr noundef %13, ptr noundef %14) #15
  ret i1 %15
}

; Function Attrs: alwaysinline mustprogress nounwind optsize uwtable
define linkonce_odr hidden void @_ZN8nanobind6handleC2EPK7_object(ptr noundef nonnull align 8 dereferenceable(8) %0, ptr noundef %1) unnamed_addr #5 comdat align 2 {
  %3 = alloca ptr, align 8
  %4 = alloca ptr, align 8
  store ptr %0, ptr %3, align 8, !tbaa !12
  store ptr %1, ptr %4, align 8, !tbaa !3
  %5 = load ptr, ptr %3, align 8
  %6 = getelementptr inbounds nuw %"class.nanobind::handle", ptr %5, i32 0, i32 0
  %7 = load ptr, ptr %4, align 8, !tbaa !3
  store ptr %7, ptr %6, align 8, !tbaa !14
  ret void
}

; Function Attrs: alwaysinline mustprogress nounwind optsize uwtable
define internal noundef nonnull align 8 dereferenceable(8) ptr @_ZN8nanobind6detail5tupleIJNS0_11type_casterIZL29nanobind_init_test_typing_extRNS_7module_EE7WrapperiEEEE3getILm0EEERDav(ptr noundef nonnull align 8 dereferenceable(8) %0) #5 align 2 {
  %2 = alloca ptr, align 8
  store ptr %0, ptr %2, align 8, !tbaa !296
  %3 = load ptr, ptr %2, align 8
  %4 = getelementptr inbounds nuw %"struct.nanobind::detail::tuple.93", ptr %3, i32 0, i32 0
  ret ptr %4
}

; Function Attrs: alwaysinline mustprogress optsize uwtable
define internal noundef ptr @"_ZZN8nanobind6detail11func_createILb0ELb1EZL29nanobind_init_test_typing_extRNS_7module_EE3$_5NS_6objectEJRZL29nanobind_init_test_typing_extS3_E7WrapperEJLm0EEJNS_5scopeENS_4nameENS_9is_methodENS_3sigEEEEP7_objectOT1_PFT2_DpT3_ESt16integer_sequenceImJXspT4_EEEDpRKT5_ENKUlPvPSD_PhNS_9rv_policyEPNS0_12cleanup_listEE_clESR_SS_ST_SU_SW_"(ptr noundef nonnull align 1 dereferenceable(1) %0, ptr noundef %1, ptr noundef %2, ptr noundef %3, i32 noundef %4, ptr noundef %5) #3 align 2 {
  %7 = alloca ptr, align 8
  %8 = alloca ptr, align 8
  %9 = alloca ptr, align 8
  %10 = alloca ptr, align 8
  %11 = alloca ptr, align 8
  %12 = alloca i32, align 4
  %13 = alloca ptr, align 8
  %14 = alloca ptr, align 8
  %15 = alloca %"struct.nanobind::detail::tuple.93", align 8
  %16 = alloca %"class.nanobind::handle", align 8
  %17 = alloca i32, align 4
  %18 = alloca ptr, align 8
  %19 = alloca %"class.nanobind::handle", align 8
  %20 = alloca %"class.nanobind::object", align 8
  store ptr %0, ptr %8, align 8, !tbaa !30
  store ptr %1, ptr %9, align 8, !tbaa !30
  store ptr %2, ptr %10, align 8, !tbaa !161
  store ptr %3, ptr %11, align 8, !tbaa !20
  store i32 %4, ptr %12, align 4, !tbaa !163
  store ptr %5, ptr %13, align 8, !tbaa !165
  call void @llvm.lifetime.start.p0(i64 8, ptr %14) #14
  %21 = load ptr, ptr %9, align 8, !tbaa !30
  store ptr %21, ptr %14, align 8, !tbaa !292
  call void @llvm.lifetime.start.p0(i64 8, ptr %15) #14
  %22 = call noundef nonnull align 8 dereferenceable(8) ptr @_ZN8nanobind6detail5tupleIJNS0_11type_casterIZL29nanobind_init_test_typing_extRNS_7module_EE7WrapperiEEEE3getILm0EEERDav(ptr noundef nonnull align 8 dereferenceable(8) %15) #13
  %23 = load ptr, ptr %10, align 8, !tbaa !161
  %24 = getelementptr inbounds nuw ptr, ptr %23, i64 0
  %25 = load ptr, ptr %24, align 8, !tbaa !3
  call void @_ZN8nanobind6handleC2EPK7_object(ptr noundef nonnull align 8 dereferenceable(8) %16, ptr noundef %25) #13
  %26 = load ptr, ptr %11, align 8, !tbaa !20
  %27 = getelementptr inbounds nuw i8, ptr %26, i64 0
  %28 = load i8, ptr %27, align 1, !tbaa !76
  %29 = load ptr, ptr %13, align 8, !tbaa !165
  %30 = getelementptr inbounds nuw %"class.nanobind::handle", ptr %16, i32 0, i32 0
  %31 = load ptr, ptr %30, align 8
  %32 = call noundef zeroext i1 @_ZN8nanobind6detail16type_caster_baseIZL29nanobind_init_test_typing_extRNS_7module_EE7WrapperE11from_pythonENS_6handleEhPNS0_12cleanup_listE(ptr noundef nonnull align 8 dereferenceable(8) %22, ptr %31, i8 noundef zeroext %28, ptr noundef %29) #15
  br i1 %32, label %34, label %33

33:                                               ; preds = %6
  store ptr inttoptr (i64 1 to ptr), ptr %7, align 8
  store i32 1, ptr %17, align 4
  br label %44

34:                                               ; preds = %6
  call void @llvm.lifetime.start.p0(i64 8, ptr %18) #14
  call void @llvm.lifetime.start.p0(i64 8, ptr %19) #14
  call void @llvm.lifetime.start.p0(i64 8, ptr %20) #14
  %35 = load ptr, ptr %14, align 8, !tbaa !292
  %36 = call noundef nonnull align 8 dereferenceable(8) ptr @_ZN8nanobind6detail5tupleIJNS0_11type_casterIZL29nanobind_init_test_typing_extRNS_7module_EE7WrapperiEEEE3getILm0EEERDav(ptr noundef nonnull align 8 dereferenceable(8) %15) #13
  %37 = call noundef nonnull align 8 dereferenceable(8) ptr @_ZN8nanobind6detail16type_caster_baseIZL29nanobind_init_test_typing_extRNS_7module_EE7WrapperEcvRS4_Ev(ptr noundef nonnull align 8 dereferenceable(8) %36) #13
  call void @"_ZZL29nanobind_init_test_typing_extRN8nanobind7module_EENK3$_5clERZL29nanobind_init_test_typing_extS1_E7Wrapper"(ptr dead_on_unwind writable sret(%"class.nanobind::object") align 8 %20, ptr noundef nonnull align 1 dereferenceable(1) %35, ptr noundef nonnull align 8 dereferenceable(8) %37) #13
  %38 = load i32, ptr %12, align 4, !tbaa !163
  %39 = load ptr, ptr %13, align 8, !tbaa !165
  %40 = call ptr @_ZN8nanobind6detail11type_casterINS_6objectEiE8from_cppEOS2_NS_9rv_policyEPNS0_12cleanup_listE(ptr noundef nonnull align 8 dereferenceable(8) %20, i32 noundef %38, ptr noundef %39) #15
  %41 = getelementptr inbounds nuw %"class.nanobind::handle", ptr %19, i32 0, i32 0
  store ptr %40, ptr %41, align 8
  %42 = call noundef ptr @_ZNK8nanobind6handle3ptrEv(ptr noundef nonnull align 8 dereferenceable(8) %19) #13
  store ptr %42, ptr %18, align 8, !tbaa !3
  call void @_ZN8nanobind6objectD2Ev(ptr noundef nonnull align 8 dereferenceable(8) %20) #15
  call void @llvm.lifetime.end.p0(i64 8, ptr %20) #14
  call void @llvm.lifetime.end.p0(i64 8, ptr %19) #14
  %43 = load ptr, ptr %18, align 8, !tbaa !3
  store ptr %43, ptr %7, align 8
  store i32 1, ptr %17, align 4
  call void @llvm.lifetime.end.p0(i64 8, ptr %18) #14
  br label %44

44:                                               ; preds = %34, %33
  call void @llvm.lifetime.end.p0(i64 8, ptr %15) #14
  call void @llvm.lifetime.end.p0(i64 8, ptr %14) #14
  %45 = load ptr, ptr %7, align 8
  ret ptr %45
}

; Function Attrs: inlinehint mustprogress optsize uwtable
define internal noundef ptr @"_ZZN8nanobind6detail11func_createILb0ELb1EZL29nanobind_init_test_typing_extRNS_7module_EE3$_5NS_6objectEJRZL29nanobind_init_test_typing_extS3_E7WrapperEJLm0EEJNS_5scopeENS_4nameENS_9is_methodENS_3sigEEEEP7_objectOT1_PFT2_DpT3_ESt16integer_sequenceImJXspT4_EEEDpRKT5_ENUlPvPSD_PhNS_9rv_policyEPNS0_12cleanup_listEE_8__invokeESR_SS_ST_SU_SW_"(ptr noundef %0, ptr noundef %1, ptr noundef %2, i32 noundef %3, ptr noundef %4) #9 align 2 {
  %6 = alloca ptr, align 8
  %7 = alloca ptr, align 8
  %8 = alloca ptr, align 8
  %9 = alloca i32, align 4
  %10 = alloca ptr, align 8
  %11 = alloca %class.anon.91, align 1
  store ptr %0, ptr %6, align 8, !tbaa !30
  store ptr %1, ptr %7, align 8, !tbaa !161
  store ptr %2, ptr %8, align 8, !tbaa !20
  store i32 %3, ptr %9, align 4, !tbaa !163
  store ptr %4, ptr %10, align 8, !tbaa !165
  %12 = load ptr, ptr %6, align 8, !tbaa !30
  %13 = load ptr, ptr %7, align 8, !tbaa !161
  %14 = load ptr, ptr %8, align 8, !tbaa !20
  %15 = load i32, ptr %9, align 4, !tbaa !163
  %16 = load ptr, ptr %10, align 8, !tbaa !165
  %17 = call noundef ptr @"_ZZN8nanobind6detail11func_createILb0ELb1EZL29nanobind_init_test_typing_extRNS_7module_EE3$_5NS_6objectEJRZL29nanobind_init_test_typing_extS3_E7WrapperEJLm0EEJNS_5scopeENS_4nameENS_9is_methodENS_3sigEEEEP7_objectOT1_PFT2_DpT3_ESt16integer_sequenceImJXspT4_EEEDpRKT5_ENKUlPvPSD_PhNS_9rv_policyEPNS0_12cleanup_listEE_clESR_SS_ST_SU_SW_"(ptr noundef nonnull align 1 dereferenceable(1) %11, ptr noundef %12, ptr noundef %13, ptr noundef %14, i32 noundef %15, ptr noundef %16) #13
  ret ptr %17
}