; Function Attrs: inlinehint mustprogress optsize uwtable
define internal noundef ptr @"_ZZN8nanobind6detail11func_createILb0ELb1EZL29nanobind_init_test_typing_extRNS_7module_EE3$_5NS_6objectEJRZL29nanobind_init_test_typing_extS3_E7WrapperEJLm0EEJNS_5scopeENS_4nameENS_9is_methodENS_3sigEEEEP7_objectOT1_PFT2_DpT3_ESt16integer_sequenceImJXspT4_EEEDpRKT5_ENUlPvPSD_PhNS_9rv_policyEPNS0_12cleanup_listEE_8__invokeESR_SS_ST_SU_SW_"(ptr readnone captures(none) %0, ptr noundef readonly captures(none) %1, ptr noundef readonly captures(none) %2, i32 %3, ptr noundef %4) #11 align 2 personality ptr @__gxx_personality_v0 {
  %6 = alloca %"struct.nanobind::detail::tuple.93", align 8
  %7 = alloca %"class.nanobind::object", align 8
  call void @llvm.lifetime.start.p0(i64 8, ptr nonnull %6) #18
  %8 = load ptr, ptr %1, align 8, !tbaa !126
  %9 = load i8, ptr %2, align 1, !tbaa !76
  %10 = call noundef zeroext i1 @_ZN8nanobind6detail11nb_type_getEPKSt9type_infoP7_objecthPNS0_12cleanup_listEPPv(ptr noundef nonnull @_ZTIZL29nanobind_init_test_typing_extRN8nanobind7module_EE7Wrapper, ptr noundef %8, i8 noundef zeroext %9, ptr noundef %4, ptr noundef nonnull align 8 dereferenceable(8) %6) #19
  br i1 %10, label %11, label %"_ZZN8nanobind6detail11func_createILb0ELb1EZL29nanobind_init_test_typing_extRNS_7module_EE3$_5NS_6objectEJRZL29nanobind_init_test_typing_extS3_E7WrapperEJLm0EEJNS_5scopeENS_4nameENS_9is_methodENS_3sigEEEEP7_objectOT1_PFT2_DpT3_ESt16integer_sequenceImJXspT4_EEEDpRKT5_ENKUlPvPSD_PhNS_9rv_policyEPNS0_12cleanup_listEE_clESR_SS_ST_SU_SW_.exit"

11:                                               ; preds = %5
  call void @llvm.lifetime.start.p0(i64 8, ptr nonnull %7) #18
  %12 = load ptr, ptr %6, align 8, !tbaa !176
  call void @_ZN8nanobind6detail27raise_next_overload_if_nullEPv(ptr noundef %12) #17
  %13 = load ptr, ptr %6, align 8, !tbaa !176
  %.val = load i64, ptr %13, align 8
  %.not.i.i.i.i = icmp eq i64 %.val, 0
  %14 = inttoptr i64 %.val to ptr
  br i1 %.not.i.i.i.i, label %"_ZZL29nanobind_init_test_typing_extRN8nanobind7module_EENK3$_5clERZL29nanobind_init_test_typing_extS1_E7Wrapper.exit", label %15

15:                                               ; preds = %11
  %16 = load i64, ptr %14, align 8, !tbaa !70, !noalias !182
  %17 = add nsw i64 %16, 1
  store i64 %17, ptr %14, align 8, !tbaa !70, !noalias !182
  br label %"_ZZL29nanobind_init_test_typing_extRN8nanobind7module_EENK3$_5clERZL29nanobind_init_test_typing_extS1_E7Wrapper.exit"

"_ZZL29nanobind_init_test_typing_extRN8nanobind7module_EENK3$_5clERZL29nanobind_init_test_typing_extS1_E7Wrapper.exit": ; preds = %11, %15
  store ptr null, ptr %7, align 8, !tbaa !35
  %18 = call noundef nonnull align 8 dereferenceable(8) ptr @_ZNKR8nanobind6handle7dec_refEv(ptr noundef nonnull align 8 dereferenceable(8) %7) #19
  call void @llvm.lifetime.end.p0(i64 8, ptr nonnull %7) #18
  br label %"_ZZN8nanobind6detail11func_createILb0ELb1EZL29nanobind_init_test_typing_extRNS_7module_EE3$_5NS_6objectEJRZL29nanobind_init_test_typing_extS3_E7WrapperEJLm0EEJNS_5scopeENS_4nameENS_9is_methodENS_3sigEEEEP7_objectOT1_PFT2_DpT3_ESt16integer_sequenceImJXspT4_EEEDpRKT5_ENKUlPvPSD_PhNS_9rv_policyEPNS0_12cleanup_listEE_clESR_SS_ST_SU_SW_.exit"

"_ZZN8nanobind6detail11func_createILb0ELb1EZL29nanobind_init_test_typing_extRNS_7module_EE3$_5NS_6objectEJRZL29nanobind_init_test_typing_extS3_E7WrapperEJLm0EEJNS_5scopeENS_4nameENS_9is_methodENS_3sigEEEEP7_objectOT1_PFT2_DpT3_ESt16integer_sequenceImJXspT4_EEEDpRKT5_ENKUlPvPSD_PhNS_9rv_policyEPNS0_12cleanup_listEE_clESR_SS_ST_SU_SW_.exit": ; preds = %5, %"_ZZL29nanobind_init_test_typing_extRN8nanobind7module_EENK3$_5clERZL29nanobind_init_test_typing_extS1_E7Wrapper.exit"
  %.0.i = phi ptr [ %14, %"_ZZL29nanobind_init_test_typing_extRN8nanobind7module_EENK3$_5clERZL29nanobind_init_test_typing_extS1_E7Wrapper.exit" ], [ inttoptr (i64 1 to ptr), %5 ]
  call void @llvm.lifetime.end.p0(i64 8, ptr nonnull %6) #18
  ret ptr %.0.i
}